target datalayout = "e-m:e-p270:32:32-p271:32:32-p272:64:64-i64:64-i128:128-f80:128-n8:16:32:64-S128"
target triple = "x86_64-pc-linux-gnu"

@.str.18 = private unnamed_addr constant [36 x i8] c"failed to rename file %s to %s: %s\0A\00", align 1

; Function Attrs: inlinehint nounwind uwtable
define internal ptr @av_make_error_string(ptr noundef %0, i64 noundef %1, i32 noundef %2) #5 {
  %4 = alloca ptr, align 8
  %5 = alloca i64, align 8
  %6 = alloca i32, align 4
  store ptr %0, ptr %4, align 8, !tbaa !20
  store i64 %1, ptr %5, align 8, !tbaa !47
  store i32 %2, ptr %6, align 4, !tbaa !21
  %7 = load i32, ptr %6, align 4, !tbaa !21
  %8 = load ptr, ptr %4, align 8, !tbaa !20
  %9 = load i64, ptr %5, align 8, !tbaa !47
  %10 = call i32 @av_strerror(i32 noundef %7, ptr noundef %8, i64 noundef %9)
  %11 = load ptr, ptr %4, align 8, !tbaa !20
  ret ptr %11
}

; Function Attrs: nounwind uwtable
define i32 @ff_rename(ptr noundef %0, ptr noundef %1, ptr noundef %2) #1 {
  %4 = alloca ptr, align 8
  %5 = alloca ptr, align 8
  %6 = alloca ptr, align 8
  %7 = alloca i32, align 4
  %8 = alloca [64 x i8], align 1
  store ptr %0, ptr %4, align 8, !tbaa !20
  store ptr %1, ptr %5, align 8, !tbaa !20
  store ptr %2, ptr %6, align 8, !tbaa !4
  call void @llvm.lifetime.start.p0(i64 4, ptr %7) #10
  %9 = load ptr, ptr %4, align 8, !tbaa !20
  %10 = load ptr, ptr %5, align 8, !tbaa !20
  %11 = call i32 @ffurl_move(ptr noundef %9, ptr noundef %10)
  store i32 %11, ptr %7, align 4, !tbaa !21
  %12 = load i32, ptr %7, align 4, !tbaa !21
  %13 = icmp slt i32 %12, 0
  br i1 %13, label %14, label %21

14:                                               ; preds = %3
  %15 = load ptr, ptr %6, align 8, !tbaa !4
  %16 = load ptr, ptr %4, align 8, !tbaa !20
  %17 = load ptr, ptr %5, align 8, !tbaa !20
  call void @llvm.memset.p0.i64(ptr align 1 %8, i8 0, i64 64, i1 false)
  %18 = getelementptr inbounds [64 x i8], ptr %8, i64 0, i64 0
  %19 = load i32, ptr %7, align 4, !tbaa !21
  %20 = call ptr @av_make_error_string(ptr noundef %18, i64 noundef 64, i32 noundef %19)
  call void (ptr, i32, ptr, ...) @av_log(ptr noundef %15, i32 noundef 16, ptr noundef @.str.18, ptr noundef %16, ptr noundef %17, ptr noundef %20)
  br label %21

21:                                               ; preds = %14, %3
  %22 = load i32, ptr %7, align 4, !tbaa !21
  call void @llvm.lifetime.end.p0(i64 4, ptr %7) #10
  ret i32 %22
}