; Function Attrs: nounwind uwtable
define i32 @ff_rename(ptr noundef %0, ptr noundef %1, ptr noundef %2) local_unnamed_addr #3 {
  %4 = alloca [64 x i8], align 1
  %5 = tail call i32 @ffurl_move(ptr noundef %0, ptr noundef %1)
  %6 = icmp slt i32 %5, 0
  br i1 %6, label %7, label %9

7:                                                ; preds = %3
  call void @llvm.memset.p0.i64(ptr noundef nonnull align 1 dereferenceable(64) %4, i8 0, i64 64, i1 false)
  %8 = call i32 @av_strerror(i32 noundef range(i32 -2147483648, 0) %5, ptr noundef nonnull %4, i64 noundef 64) #12
  call void (ptr, i32, ptr, ...) @av_log(ptr noundef %2, i32 noundef 16, ptr noundef nonnull @.str.18, ptr noundef %0, ptr noundef %1, ptr noundef nonnull %4) #12
  br label %9

9:                                                ; preds = %7, %3
  ret i32 %5
}